target datalayout = "e-m:e-p270:32:32-p271:32:32-p272:64:64-i64:64-i128:128-f80:128-n8:16:32:64-S128"
target triple = "x86_64-pc-linux-gnu"

%"struct.ofbx::Vec4" = type { double, double, double, double }

; Function Attrs: mustprogress nounwind uwtable
define noundef ptr @_ZN4ofbx10fromStringEPKcS1_Pdi(ptr noundef %0, ptr noundef %1, ptr noundef %2, i32 noundef %3) #0 {
  %5 = alloca ptr, align 8
  %6 = alloca ptr, align 8
  %7 = alloca ptr, align 8
  %8 = alloca ptr, align 8
  %9 = alloca i32, align 4
  %10 = alloca ptr, align 8
  %11 = alloca i32, align 4
  store ptr %0, ptr %6, align 8
  store ptr %1, ptr %7, align 8
  store ptr %2, ptr %8, align 8
  store i32 %3, ptr %9, align 4
  %12 = load ptr, ptr %6, align 8
  store ptr %12, ptr %10, align 8
  store i32 0, ptr %11, align 4
  br label %13

13:                                               ; preds = %51, %4
  %14 = load i32, ptr %11, align 4
  %15 = load i32, ptr %9, align 4
  %16 = icmp slt i32 %14, %15
  br i1 %16, label %17, label %54

17:                                               ; preds = %13
  %18 = load ptr, ptr %10, align 8
  %19 = call double @atof(ptr noundef %18) #14
  %20 = load ptr, ptr %8, align 8
  store double %19, ptr %20, align 8
  %21 = load ptr, ptr %8, align 8
  %22 = getelementptr inbounds double, ptr %21, i32 1
  store ptr %22, ptr %8, align 8
  br label %23

23:                                               ; preds = %34, %17
  %24 = load ptr, ptr %10, align 8
  %25 = load ptr, ptr %7, align 8
  %26 = icmp ult ptr %24, %25
  br i1 %26, label %27, label %32

27:                                               ; preds = %23
  %28 = load ptr, ptr %10, align 8
  %29 = load i8, ptr %28, align 1
  %30 = sext i8 %29 to i32
  %31 = icmp ne i32 %30, 44
  br label %32

32:                                               ; preds = %27, %23
  %33 = phi i1 [ false, %23 ], [ %31, %27 ]
  br i1 %33, label %34, label %37

34:                                               ; preds = %32
  %35 = load ptr, ptr %10, align 8
  %36 = getelementptr inbounds i8, ptr %35, i32 1
  store ptr %36, ptr %10, align 8
  br label %23, !llvm.loop !14

37:                                               ; preds = %32
  %38 = load ptr, ptr %10, align 8
  %39 = load ptr, ptr %7, align 8
  %40 = icmp ult ptr %38, %39
  br i1 %40, label %41, label %44

41:                                               ; preds = %37
  %42 = load ptr, ptr %10, align 8
  %43 = getelementptr inbounds i8, ptr %42, i32 1
  store ptr %43, ptr %10, align 8
  br label %44

44:                                               ; preds = %41, %37
  %45 = load ptr, ptr %10, align 8
  %46 = load ptr, ptr %7, align 8
  %47 = icmp eq ptr %45, %46
  br i1 %47, label %48, label %50

48:                                               ; preds = %44
  %49 = load ptr, ptr %10, align 8
  store ptr %49, ptr %5, align 8
  br label %56

50:                                               ; preds = %44
  br label %51

51:                                               ; preds = %50
  %52 = load i32, ptr %11, align 4
  %53 = add nsw i32 %52, 1
  store i32 %53, ptr %11, align 4
  br label %13, !llvm.loop !15

54:                                               ; preds = %13
  %55 = load ptr, ptr %10, align 8
  store ptr %55, ptr %5, align 8
  br label %56

56:                                               ; preds = %54, %48
  %57 = load ptr, ptr %5, align 8
  ret ptr %57
}

; Function Attrs: mustprogress nounwind uwtable
define noundef ptr @_ZN4ofbx10fromStringINS_4Vec4EEEPKcS3_S3_PT_(ptr noundef %0, ptr noundef %1, ptr noundef %2) #0 {
  %4 = alloca ptr, align 8
  %5 = alloca ptr, align 8
  %6 = alloca ptr, align 8
  store ptr %0, ptr %4, align 8
  store ptr %1, ptr %5, align 8
  store ptr %2, ptr %6, align 8
  %7 = load ptr, ptr %4, align 8
  %8 = load ptr, ptr %5, align 8
  %9 = load ptr, ptr %6, align 8
  %10 = getelementptr inbounds %"struct.ofbx::Vec4", ptr %9, i32 0, i32 0
  %11 = call noundef ptr @_ZN4ofbx10fromStringEPKcS1_Pdi(ptr noundef %7, ptr noundef %8, ptr noundef %10, i32 noundef 4)
  ret ptr %11
}